target datalayout = "e-m:e-p270:32:32-p271:32:32-p272:64:64-i64:64-i128:128-f80:128-n8:16:32:64-S128"
target triple = "x86_64-pc-linux-gnu"

%class.QString = type { %struct.QArrayDataPointer }
%struct.QArrayDataPointer = type { ptr, ptr, i64 }
%class.ATapDataModel = type { %class.QAbstractListModel, i32, ptr, %class.QString, i8, i8, i8, i8, double, double, i32, %struct._conversation_hash_t }
%class.QAbstractListModel = type { %class.QAbstractItemModel }
%class.QAbstractItemModel = type { %class.QObject }
%class.QObject = type { ptr, %class.QScopedPointer }
%class.QScopedPointer = type { ptr }
%struct._conversation_hash_t = type { ptr, ptr, ptr, i32 }

; Function Attrs: mustprogress uwtable
define void @_ZN13ATapDataModel15setResolveNamesEb(ptr noundef nonnull align 8 dereferenceable(120) %0, i1 noundef zeroext %1) #0 align 2 {
  %3 = alloca ptr, align 8
  %4 = alloca i8, align 1
  store ptr %0, ptr %3, align 8
  %5 = zext i1 %1 to i8
  store i8 %5, ptr %4, align 1
  %6 = load ptr, ptr %3, align 8
  %7 = getelementptr inbounds %class.ATapDataModel, ptr %6, i32 0, i32 6
  %8 = load i8, ptr %7, align 2
  %9 = trunc i8 %8 to i1
  %10 = zext i1 %9 to i32
  %11 = load i8, ptr %4, align 1
  %12 = trunc i8 %11 to i1
  %13 = zext i1 %12 to i32
  %14 = icmp eq i32 %10, %13
  br i1 %14, label %15, label %16

15:                                               ; preds = %2
  br label %21

16:                                               ; preds = %2
  call void @_ZN18QAbstractItemModel15beginResetModelEv(ptr noundef nonnull align 8 dereferenceable(16) %6)
  %17 = load i8, ptr %4, align 1
  %18 = trunc i8 %17 to i1
  %19 = getelementptr inbounds %class.ATapDataModel, ptr %6, i32 0, i32 6
  %20 = zext i1 %18 to i8
  store i8 %20, ptr %19, align 2
  call void @_ZN18QAbstractItemModel13endResetModelEv(ptr noundef nonnull align 8 dereferenceable(16) %6)
  br label %21

21:                                               ; preds = %16, %15
  ret void
}