; Function Attrs: mustprogress uwtable
define void @_ZN13ATapDataModel15setResolveNamesEb(ptr noundef nonnull align 8 dereferenceable(120) %0, i1 noundef zeroext %1) local_unnamed_addr #0 align 2 {
  %3 = getelementptr inbounds i8, ptr %0, i64 58
  %4 = load i8, ptr %3, align 2
  %5 = and i8 %4, 1
  %6 = icmp eq i8 %5, 0
  %7 = xor i1 %6, %1
  br i1 %7, label %10, label %8

8:                                                ; preds = %2
  %9 = zext i1 %1 to i8
  tail call void @_ZN18QAbstractItemModel15beginResetModelEv(ptr noundef nonnull align 8 dereferenceable(16) %0)
  store i8 %9, ptr %3, align 2
  tail call void @_ZN18QAbstractItemModel13endResetModelEv(ptr noundef nonnull align 8 dereferenceable(16) %0)
  br label %10

10:                                               ; preds = %2, %8
  ret void
}